target datalayout = "e-m:e-p270:32:32-p271:32:32-p272:64:64-i64:64-i128:128-f80:128-n8:16:32:64-S128"
target triple = "x86_64-pc-linux-gnu"

@keyctx = internal global ptr null, align 8
@testpropq = internal global ptr null, align 8

; Function Attrs: nounwind uwtable
define internal ptr @make_key(ptr noundef %0, ptr noundef %1, ptr noundef %2) #0 {
  %4 = alloca ptr, align 8
  %5 = alloca ptr, align 8
  %6 = alloca ptr, align 8
  %7 = alloca ptr, align 8
  %8 = alloca ptr, align 8
  store ptr %0, ptr %4, align 8, !tbaa !4
  store ptr %1, ptr %5, align 8, !tbaa !23
  store ptr %2, ptr %6, align 8, !tbaa !21
  call void @llvm.lifetime.start.p0(i64 8, ptr %7) #7
  store ptr null, ptr %7, align 8, !tbaa !23
  call void @llvm.lifetime.start.p0(i64 8, ptr %8) #7
  %9 = load ptr, ptr %5, align 8, !tbaa !23
  %10 = icmp ne ptr %9, null
  br i1 %10, label %11, label %16

11:                                               ; preds = %3
  %12 = load ptr, ptr @keyctx, align 8, !tbaa !13
  %13 = load ptr, ptr %5, align 8, !tbaa !23
  %14 = load ptr, ptr @testpropq, align 8, !tbaa !4
  %15 = call ptr @EVP_PKEY_CTX_new_from_pkey(ptr noundef %12, ptr noundef %13, ptr noundef %14)
  br label %21

16:                                               ; preds = %3
  %17 = load ptr, ptr @keyctx, align 8, !tbaa !13
  %18 = load ptr, ptr %4, align 8, !tbaa !4
  %19 = load ptr, ptr @testpropq, align 8, !tbaa !4
  %20 = call ptr @EVP_PKEY_CTX_new_from_name(ptr noundef %17, ptr noundef %18, ptr noundef %19)
  br label %21

21:                                               ; preds = %16, %11
  %22 = phi ptr [ %15, %11 ], [ %20, %16 ]
  store ptr %22, ptr %8, align 8, !tbaa !25
  %23 = load ptr, ptr %8, align 8, !tbaa !25
  %24 = icmp ne ptr %23, null
  br i1 %24, label %25, label %40

25:                                               ; preds = %21
  %26 = load ptr, ptr %8, align 8, !tbaa !25
  %27 = call i32 @EVP_PKEY_keygen_init(ptr noundef %26)
  %28 = icmp sgt i32 %27, 0
  br i1 %28, label %29, label %40

29:                                               ; preds = %25
  %30 = load ptr, ptr %6, align 8, !tbaa !21
  %31 = icmp eq ptr %30, null
  br i1 %31, label %37, label %32

32:                                               ; preds = %29
  %33 = load ptr, ptr %8, align 8, !tbaa !25
  %34 = load ptr, ptr %6, align 8, !tbaa !21
  %35 = call i32 @EVP_PKEY_CTX_set_params(ptr noundef %33, ptr noundef %34)
  %36 = icmp sgt i32 %35, 0
  br i1 %36, label %37, label %40

37:                                               ; preds = %32, %29
  %38 = load ptr, ptr %8, align 8, !tbaa !25
  %39 = call i32 @EVP_PKEY_keygen(ptr noundef %38, ptr noundef %7)
  br label %40

40:                                               ; preds = %37, %32, %25, %21
  %41 = load ptr, ptr %8, align 8, !tbaa !25
  call void @EVP_PKEY_CTX_free(ptr noundef %41)
  %42 = load ptr, ptr %7, align 8, !tbaa !23
  call void @llvm.lifetime.end.p0(i64 8, ptr %8) #7
  call void @llvm.lifetime.end.p0(i64 8, ptr %7) #7
  ret ptr %42
}