; Function Attrs: nounwind uwtable
define internal fastcc ptr @make_key(ptr noundef %0, ptr noundef %1) unnamed_addr #1 {
  %3 = alloca ptr, align 8
  call void @llvm.lifetime.start.p0(i64 8, ptr nonnull %3) #8
  store ptr null, ptr %3, align 8, !tbaa !21
  %.not = icmp eq ptr %1, null
  %4 = load ptr, ptr @keyctx, align 8, !tbaa !10
  br i1 %.not, label %7, label %5

5:                                                ; preds = %2
  %6 = tail call ptr @EVP_PKEY_CTX_new_from_pkey(ptr noundef %4, ptr noundef nonnull %1, ptr noundef null) #8
  br label %9

7:                                                ; preds = %2
  %8 = tail call ptr @EVP_PKEY_CTX_new_from_name(ptr noundef %4, ptr noundef %0, ptr noundef null) #8
  br label %9

9:                                                ; preds = %7, %5
  %10 = phi ptr [ %6, %5 ], [ %8, %7 ]
  %.not12 = icmp eq ptr %10, null
  br i1 %.not12, label %16, label %11

11:                                               ; preds = %9
  %12 = tail call i32 @EVP_PKEY_keygen_init(ptr noundef nonnull %10) #8
  %13 = icmp sgt i32 %12, 0
  br i1 %13, label %14, label %16

14:                                               ; preds = %11
  %15 = call i32 @EVP_PKEY_keygen(ptr noundef nonnull %10, ptr noundef nonnull %3) #8
  br label %16

16:                                               ; preds = %14, %11, %9
  call void @EVP_PKEY_CTX_free(ptr noundef %10) #8
  %17 = load ptr, ptr %3, align 8, !tbaa !21
  call void @llvm.lifetime.end.p0(i64 8, ptr nonnull %3) #8
  ret ptr %17
}